target datalayout = "e-m:e-p270:32:32-p271:32:32-p272:64:64-i64:64-i128:128-f80:128-n8:16:32:64-S128"
target triple = "x86_64-pc-linux-gnu"

%struct.rb_data_type_struct = type { ptr, %struct.anon, ptr, ptr, i64 }
%struct.anon = type { ptr, ptr, ptr, ptr, [1 x ptr] }
%struct.anon.0 = type { i8, i8 }
%struct.rb_random_mt_t = type { %struct.rb_random_struct, %struct.MT }
%struct.rb_random_struct = type { i64 }
%struct.MT = type { [624 x i32], ptr, i32 }
%struct.rb_random_interface_t = type { i64, %struct.anon.0, i16, ptr, ptr, ptr, ptr, ptr }
%struct.RBasic = type { i64, i64 }
%struct.RTypedData = type { %struct.RBasic, ptr, i64, ptr }

@default_rand_key = internal global ptr null, align 8
@random_mt_if = internal constant { i64, %struct.anon.0, i16, [4 x i8], ptr, ptr, ptr, ptr, ptr } { i64 128, %struct.anon.0 { i8 1, i8 0 }, i16 0, [4 x i8] zeroinitializer, ptr @rand_mt_init, ptr @rand_mt_init_int32, ptr @rand_mt_get_int32, ptr @rand_mt_get_bytes, ptr null }, align 8

; Function Attrs: inlinehint nounwind sspstrong willreturn memory(read) uwtable
define internal ptr @RTYPEDDATA_TYPE(i64 noundef %0) #6 {
  %2 = alloca i64, align 8
  store i64 %0, ptr %2, align 8, !tbaa !26
  %3 = load i64, ptr %2, align 8, !tbaa !26
  %4 = inttoptr i64 %3 to ptr
  %5 = getelementptr inbounds nuw %struct.RTypedData, ptr %4, i32 0, i32 1
  %6 = load ptr, ptr %5, align 8, !tbaa !86
  ret ptr %6
}

; Function Attrs: nounwind sspstrong uwtable
define internal double @int_pair_to_real_inclusive(i32 noundef %0, i32 noundef %1) #0 {
  %3 = alloca i32, align 4
  %4 = alloca i32, align 4
  %5 = alloca double, align 8
  %6 = alloca i128, align 16
  %7 = alloca i128, align 16
  store i32 %0, ptr %3, align 4, !tbaa !19
  store i32 %1, ptr %4, align 4, !tbaa !19
  call void @llvm.lifetime.start.p0(i64 8, ptr %5) #24
  call void @llvm.lifetime.start.p0(i64 16, ptr %6) #24
  store i128 9007199254740993, ptr %6, align 16, !tbaa !45
  call void @llvm.lifetime.start.p0(i64 16, ptr %7) #24
  %8 = load i32, ptr %3, align 4, !tbaa !19
  %9 = zext i32 %8 to i128
  %10 = shl i128 %9, 32
  %11 = load i32, ptr %4, align 4, !tbaa !19
  %12 = zext i32 %11 to i128
  %13 = or i128 %10, %12
  store i128 %13, ptr %7, align 16, !tbaa !45
  %14 = load i128, ptr %7, align 16, !tbaa !45
  %15 = mul i128 %14, 9007199254740993
  %16 = lshr i128 %15, 64
  %17 = trunc i128 %16 to i64
  %18 = uitofp i64 %17 to double
  store double %18, ptr %5, align 8, !tbaa !47
  %19 = load double, ptr %5, align 8, !tbaa !47
  %20 = fmul double %19, 0x3CA0000000000000
  call void @llvm.lifetime.end.p0(i64 16, ptr %7) #24
  call void @llvm.lifetime.end.p0(i64 16, ptr %6) #24
  call void @llvm.lifetime.end.p0(i64 8, ptr %5) #24
  ret double %20
}

; Function Attrs: nounwind sspstrong uwtable
define internal double @int_pair_to_real_exclusive(i32 noundef %0, i32 noundef %1) #0 {
  %3 = alloca i32, align 4
  %4 = alloca i32, align 4
  store i32 %0, ptr %3, align 4, !tbaa !19
  store i32 %1, ptr %4, align 4, !tbaa !19
  %5 = load i32, ptr %3, align 4, !tbaa !19
  %6 = lshr i32 %5, 5
  store i32 %6, ptr %3, align 4, !tbaa !19
  %7 = load i32, ptr %4, align 4, !tbaa !19
  %8 = lshr i32 %7, 6
  store i32 %8, ptr %4, align 4, !tbaa !19
  %9 = load i32, ptr %3, align 4, !tbaa !19
  %10 = uitofp i32 %9 to double
  %11 = load i32, ptr %4, align 4, !tbaa !19
  %12 = uitofp i32 %11 to double
  %13 = call double @llvm.fmuladd.f64(double %10, double 0x4190000000000000, double %12)
  %14 = fmul double %13, 0x3CA0000000000000
  ret double %14
}

; Function Attrs: inlinehint nounwind sspstrong willreturn memory(read) uwtable
define internal ptr @rb_rand_if(i64 noundef %0) #6 {
  %2 = alloca i64, align 8
  %3 = alloca ptr, align 8
  %4 = alloca ptr, align 8
  store i64 %0, ptr %2, align 8, !tbaa !26
  call void @llvm.lifetime.start.p0(i64 8, ptr %3) #24
  %5 = load i64, ptr %2, align 8, !tbaa !26
  %6 = call ptr @RTYPEDDATA_TYPE(i64 noundef %5) #26
  store ptr %6, ptr %3, align 8, !tbaa !93
  call void @llvm.lifetime.start.p0(i64 8, ptr %4) #24
  %7 = load ptr, ptr %3, align 8, !tbaa !93
  %8 = getelementptr inbounds nuw %struct.rb_data_type_struct, ptr %7, i32 0, i32 3
  %9 = load ptr, ptr %8, align 8, !tbaa !94
  store ptr %9, ptr %4, align 8, !tbaa !20
  %10 = load ptr, ptr %4, align 8, !tbaa !20
  call void @llvm.lifetime.end.p0(i64 8, ptr %4) #24
  call void @llvm.lifetime.end.p0(i64 8, ptr %3) #24
  ret ptr %10
}

; Function Attrs: nounwind sspstrong uwtable
define internal ptr @default_rand() #0 {
  %1 = alloca ptr, align 8
  call void @llvm.lifetime.start.p0(i64 8, ptr %1) #24
  %2 = load ptr, ptr @default_rand_key, align 8, !tbaa !7
  %3 = call ptr @rb_ractor_local_storage_ptr(ptr noundef %2)
  store ptr %3, ptr %1, align 8, !tbaa !20
  %4 = icmp eq ptr %3, null
  br i1 %4, label %5, label %9

5:                                                ; preds = %0
  %6 = call noalias nonnull ptr @ruby_xcalloc(i64 noundef 1, i64 noundef 2520) #29
  store ptr %6, ptr %1, align 8, !tbaa !20
  %7 = load ptr, ptr @default_rand_key, align 8, !tbaa !7
  %8 = load ptr, ptr %1, align 8, !tbaa !20
  call void @rb_ractor_local_storage_ptr_set(ptr noundef %7, ptr noundef %8)
  br label %9

9:                                                ; preds = %5, %0
  %10 = load ptr, ptr %1, align 8, !tbaa !20
  call void @llvm.lifetime.end.p0(i64 8, ptr %1) #24
  ret ptr %10
}

; Function Attrs: nounwind sspstrong uwtable
define dso_local double @rb_int_pair_to_real(i32 noundef %0, i32 noundef %1, i32 noundef %2) #0 {
  %4 = alloca double, align 8
  %5 = alloca i32, align 4
  %6 = alloca i32, align 4
  %7 = alloca i32, align 4
  store i32 %0, ptr %5, align 4, !tbaa !19
  store i32 %1, ptr %6, align 4, !tbaa !19
  store i32 %2, ptr %7, align 4, !tbaa !19
  %8 = load i32, ptr %7, align 4, !tbaa !19
  %9 = icmp ne i32 %8, 0
  br i1 %9, label %10, label %14

10:                                               ; preds = %3
  %11 = load i32, ptr %5, align 4, !tbaa !19
  %12 = load i32, ptr %6, align 4, !tbaa !19
  %13 = call double @int_pair_to_real_exclusive(i32 noundef %11, i32 noundef %12)
  store double %13, ptr %4, align 8
  br label %18

14:                                               ; preds = %3
  %15 = load i32, ptr %5, align 4, !tbaa !19
  %16 = load i32, ptr %6, align 4, !tbaa !19
  %17 = call double @int_pair_to_real_inclusive(i32 noundef %15, i32 noundef %16)
  store double %17, ptr %4, align 8
  br label %18

18:                                               ; preds = %14, %10
  %19 = load double, ptr %4, align 8
  ret double %19
}

; Function Attrs: nounwind sspstrong uwtable
define internal i32 @random_int32(ptr noundef %0, ptr noundef %1) #0 {
  %3 = alloca ptr, align 8
  %4 = alloca ptr, align 8
  store ptr %0, ptr %3, align 8, !tbaa !20
  store ptr %1, ptr %4, align 8, !tbaa !24
  %5 = load ptr, ptr %3, align 8, !tbaa !20
  %6 = getelementptr inbounds nuw %struct.rb_random_interface_t, ptr %5, i32 0, i32 5
  %7 = load ptr, ptr %6, align 8, !tbaa !32
  %8 = load ptr, ptr %4, align 8, !tbaa !24
  %9 = call i32 %7(ptr noundef %8)
  ret i32 %9
}

; Function Attrs: nounwind sspstrong uwtable
define internal ptr @try_rand_if(i64 noundef %0, ptr noundef %1) #0 {
  %3 = alloca ptr, align 8
  %4 = alloca i64, align 8
  %5 = alloca ptr, align 8
  store i64 %0, ptr %4, align 8, !tbaa !26
  store ptr %1, ptr %5, align 8, !tbaa !24
  %6 = load ptr, ptr %5, align 8, !tbaa !24
  %7 = call ptr @default_rand()
  %8 = getelementptr inbounds nuw %struct.rb_random_mt_t, ptr %7, i32 0, i32 0
  %9 = icmp eq ptr %6, %8
  br i1 %9, label %10, label %11

10:                                               ; preds = %2
  store ptr @random_mt_if, ptr %3, align 8
  br label %14

11:                                               ; preds = %2
  %12 = load i64, ptr %4, align 8, !tbaa !26
  %13 = call ptr @rb_rand_if(i64 noundef %12) #26
  store ptr %13, ptr %3, align 8
  br label %14

14:                                               ; preds = %11, %10
  %15 = load ptr, ptr %3, align 8
  ret ptr %15
}

; Function Attrs: nounwind sspstrong uwtable
define internal double @random_real(i64 noundef %0, ptr noundef %1, i32 noundef %2) #0 {
  %4 = alloca double, align 8
  %5 = alloca i64, align 8
  %6 = alloca ptr, align 8
  %7 = alloca i32, align 4
  %8 = alloca i32, align 4
  %9 = alloca i32, align 4
  %10 = alloca [2 x i32], align 4
  %11 = alloca ptr, align 8
  %12 = alloca i32, align 4
  store i64 %0, ptr %5, align 8, !tbaa !26
  store ptr %1, ptr %6, align 8, !tbaa !24
  store i32 %2, ptr %7, align 4, !tbaa !19
  call void @llvm.lifetime.start.p0(i64 4, ptr %8) #24
  call void @llvm.lifetime.start.p0(i64 4, ptr %9) #24
  %13 = load ptr, ptr %6, align 8, !tbaa !24
  %14 = icmp ne ptr %13, null
  br i1 %14, label %23, label %15

15:                                               ; preds = %3
  call void @llvm.lifetime.start.p0(i64 8, ptr %10) #24
  call void @llvm.memset.p0.i64(ptr align 4 %10, i8 0, i64 8, i1 false)
  %16 = load i64, ptr %5, align 8, !tbaa !26
  %17 = getelementptr inbounds [2 x i32], ptr %10, i64 0, i64 0
  %18 = call i64 @obj_random_bytes(i64 noundef %16, ptr noundef %17, i64 noundef 8)
  %19 = getelementptr [2 x i32], ptr %10, i64 0, i64 0
  %20 = load i32, ptr %19, align 4, !tbaa !19
  store i32 %20, ptr %8, align 4, !tbaa !19
  %21 = getelementptr [2 x i32], ptr %10, i64 0, i64 1
  %22 = load i32, ptr %21, align 4, !tbaa !19
  store i32 %22, ptr %9, align 4, !tbaa !19
  call void @llvm.lifetime.end.p0(i64 8, ptr %10) #24
  br label %48

23:                                               ; preds = %3
  call void @llvm.lifetime.start.p0(i64 8, ptr %11) #24
  %24 = load i64, ptr %5, align 8, !tbaa !26
  %25 = load ptr, ptr %6, align 8, !tbaa !24
  %26 = call ptr @try_rand_if(i64 noundef %24, ptr noundef %25)
  store ptr %26, ptr %11, align 8, !tbaa !20
  %27 = load ptr, ptr %11, align 8, !tbaa !20
  %28 = getelementptr inbounds nuw %struct.rb_random_interface_t, ptr %27, i32 0, i32 7
  %29 = load ptr, ptr %28, align 8, !tbaa !49
  %30 = icmp ne ptr %29, null
  br i1 %30, label %31, label %38

31:                                               ; preds = %23
  %32 = load ptr, ptr %11, align 8, !tbaa !20
  %33 = getelementptr inbounds nuw %struct.rb_random_interface_t, ptr %32, i32 0, i32 7
  %34 = load ptr, ptr %33, align 8, !tbaa !49
  %35 = load ptr, ptr %6, align 8, !tbaa !24
  %36 = load i32, ptr %7, align 4, !tbaa !19
  %37 = call double %34(ptr noundef %35, i32 noundef %36)
  store double %37, ptr %4, align 8
  store i32 1, ptr %12, align 4
  br label %45

38:                                               ; preds = %23
  %39 = load ptr, ptr %11, align 8, !tbaa !20
  %40 = load ptr, ptr %6, align 8, !tbaa !24
  %41 = call i32 @random_int32(ptr noundef %39, ptr noundef %40)
  store i32 %41, ptr %8, align 4, !tbaa !19
  %42 = load ptr, ptr %11, align 8, !tbaa !20
  %43 = load ptr, ptr %6, align 8, !tbaa !24
  %44 = call i32 @random_int32(ptr noundef %42, ptr noundef %43)
  store i32 %44, ptr %9, align 4, !tbaa !19
  store i32 0, ptr %12, align 4
  br label %45

45:                                               ; preds = %38, %31
  call void @llvm.lifetime.end.p0(i64 8, ptr %11) #24
  %46 = load i32, ptr %12, align 4
  switch i32 %46, label %53 [
    i32 0, label %47
  ]

47:                                               ; preds = %45
  br label %48

48:                                               ; preds = %47, %15
  %49 = load i32, ptr %8, align 4, !tbaa !19
  %50 = load i32, ptr %9, align 4, !tbaa !19
  %51 = load i32, ptr %7, align 4, !tbaa !19
  %52 = call double @rb_int_pair_to_real(i32 noundef %49, i32 noundef %50, i32 noundef %51)
  store double %52, ptr %4, align 8
  store i32 1, ptr %12, align 4
  br label %53

53:                                               ; preds = %48, %45
  call void @llvm.lifetime.end.p0(i64 4, ptr %9) #24
  call void @llvm.lifetime.end.p0(i64 4, ptr %8) #24
  %54 = load double, ptr %4, align 8
  ret double %54
}