; Function Attrs: nounwind sspstrong uwtable
define internal fastcc double @random_real(i64 noundef %0, ptr noundef %1, i32 noundef %2) unnamed_addr #0 {
  %4 = alloca [2 x i32], align 8
  %.not = icmp eq ptr %1, null
  br i1 %.not, label %5, label %10

5:                                                ; preds = %3
  call void @llvm.lifetime.start.p0(i64 8, ptr nonnull %4) #23
  store i64 0, ptr %4, align 8
  %6 = call fastcc i64 @obj_random_bytes(i64 noundef %0, ptr noundef nonnull %4, i64 noundef 8)
  %7 = load i32, ptr %4, align 8, !tbaa !22
  %8 = getelementptr inbounds nuw i8, ptr %4, i64 4
  %9 = load i32, ptr %8, align 4, !tbaa !22
  call void @llvm.lifetime.end.p0(i64 8, ptr nonnull %4) #23
  br label %31

10:                                               ; preds = %3
  %11 = load ptr, ptr @default_rand_key, align 8, !tbaa !7
  %12 = tail call ptr @rb_ractor_local_storage_ptr(ptr noundef %11) #23
  %13 = icmp eq ptr %12, null
  br i1 %13, label %14, label %default_rand.exit.i

14:                                               ; preds = %10
  %15 = tail call noalias nonnull dereferenceable(2520) ptr @ruby_xcalloc(i64 noundef 1, i64 noundef 2520) #24
  %16 = load ptr, ptr @default_rand_key, align 8, !tbaa !7
  tail call void @rb_ractor_local_storage_ptr_set(ptr noundef %16, ptr noundef nonnull %15) #23
  br label %default_rand.exit.i

default_rand.exit.i:                              ; preds = %14, %10
  %.0.i.i = phi ptr [ %15, %14 ], [ %12, %10 ]
  %17 = icmp eq ptr %1, %.0.i.i
  br i1 %17, label %try_rand_if.exit, label %18

18:                                               ; preds = %default_rand.exit.i
  %19 = inttoptr i64 %0 to ptr
  %20 = getelementptr inbounds nuw i8, ptr %19, i64 16
  %21 = load ptr, ptr %20, align 8, !tbaa !31
  %22 = getelementptr inbounds nuw i8, ptr %21, i64 56
  %23 = load ptr, ptr %22, align 8, !tbaa !35
  br label %try_rand_if.exit

try_rand_if.exit:                                 ; preds = %default_rand.exit.i, %18
  %.0.i = phi ptr [ %23, %18 ], [ @random_mt_if, %default_rand.exit.i ]
  %24 = getelementptr inbounds nuw i8, ptr %.0.i, i64 48
  %25 = load ptr, ptr %24, align 8, !tbaa !52
  %.not23 = icmp eq ptr %25, null
  br i1 %.not23, label %.thread, label %29

.thread:                                          ; preds = %try_rand_if.exit
  %26 = getelementptr i8, ptr %.0.i, i64 32
  %.val24 = load ptr, ptr %26, align 8, !tbaa !39
  %27 = tail call i32 %.val24(ptr noundef nonnull %1) #23
  %.val = load ptr, ptr %26, align 8, !tbaa !39
  %28 = tail call i32 %.val(ptr noundef nonnull %1) #23
  br label %31

29:                                               ; preds = %try_rand_if.exit
  %30 = tail call double %25(ptr noundef nonnull %1, i32 noundef %2) #23
  br label %47

31:                                               ; preds = %.thread, %5
  %.019 = phi i32 [ %7, %5 ], [ %27, %.thread ]
  %.017 = phi i32 [ %9, %5 ], [ %28, %.thread ]
  %.not.i = icmp eq i32 %2, 0
  br i1 %.not.i, label %38, label %32

32:                                               ; preds = %31
  %33 = lshr i32 %.019, 5
  %34 = lshr i32 %.017, 6
  %35 = uitofp nneg i32 %33 to double
  %36 = uitofp nneg i32 %34 to double
  %37 = call double @llvm.fmuladd.f64(double %35, double 0x4190000000000000, double %36)
  br label %rb_int_pair_to_real.exit

38:                                               ; preds = %31
  %39 = zext i32 %.019 to i128
  %40 = shl nuw nsw i128 %39, 32
  %41 = zext i32 %.017 to i128
  %42 = or disjoint i128 %40, %41
  %43 = mul nuw nsw i128 %42, 9007199254740993
  %44 = lshr i128 %43, 64
  %45 = trunc nuw nsw i128 %44 to i64
  %46 = uitofp nneg i64 %45 to double
  br label %rb_int_pair_to_real.exit

rb_int_pair_to_real.exit:                         ; preds = %32, %38
  %.0.in.i = phi double [ %37, %32 ], [ %46, %38 ]
  %.0.i25 = fmul double %.0.in.i, 0x3CA0000000000000
  br label %47

47:                                               ; preds = %29, %rb_int_pair_to_real.exit
  %.1 = phi double [ %.0.i25, %rb_int_pair_to_real.exit ], [ %30, %29 ]
  ret double %.1
}